ARM GAS  C:\Users\ADMINI~1\AppData\Local\Temp\ccbnYZx6.s 			page 1


   1              		.cpu cortex-m3
   2              		.eabi_attribute 20, 1
   3              		.eabi_attribute 21, 1
   4              		.eabi_attribute 23, 3
   5              		.eabi_attribute 24, 1
   6              		.eabi_attribute 25, 1
   7              		.eabi_attribute 26, 1
   8              		.eabi_attribute 30, 1
   9              		.eabi_attribute 34, 1
  10              		.eabi_attribute 18, 4
  11              		.file	"main.c"
  12              		.text
  13              	.Ltext0:
  14              		.cfi_sections	.debug_frame
  15              		.section	.rodata.pressDownCallback.str1.4,"aMS",%progbits,1
  16              		.align	2
  17              	.LC0:
  18 0000 62757474 		.ascii	"button press down. %d\015\012\000"
  18      6F6E2070 
  18      72657373 
  18      20646F77 
  18      6E2E2025 
  19              		.section	.text.pressDownCallback,"ax",%progbits
  20              		.align	1
  21              		.global	pressDownCallback
  22              		.arch armv7-m
  23              		.syntax unified
  24              		.thumb
  25              		.thumb_func
  26              		.fpu softvfp
  28              	pressDownCallback:
  29              	.LVL0:
  30              	.LFB68:
  31              		.file 1 "Core/Src/main.c"
   1:Core/Src/main.c **** /* USER CODE BEGIN Header */
   2:Core/Src/main.c **** /**
   3:Core/Src/main.c ****  ******************************************************************************
   4:Core/Src/main.c ****  * @file           : main.c
   5:Core/Src/main.c ****  * @brief          : Main program body
   6:Core/Src/main.c ****  ******************************************************************************
   7:Core/Src/main.c ****  * @attention
   8:Core/Src/main.c ****  *
   9:Core/Src/main.c ****  * Copyright (c) 2022 STMicroelectronics.
  10:Core/Src/main.c ****  * All rights reserved.
  11:Core/Src/main.c ****  *
  12:Core/Src/main.c ****  * This software is licensed under terms that can be found in the LICENSE file
  13:Core/Src/main.c ****  * in the root directory of this software component.
  14:Core/Src/main.c ****  * If no LICENSE file comes with this software, it is provided AS-IS.
  15:Core/Src/main.c ****  *
  16:Core/Src/main.c ****  ******************************************************************************
  17:Core/Src/main.c ****  */
  18:Core/Src/main.c **** /* USER CODE END Header */
  19:Core/Src/main.c **** /* Includes ------------------------------------------------------------------*/
  20:Core/Src/main.c **** #include "main.h"
  21:Core/Src/main.c **** #include "usart.h"
  22:Core/Src/main.c **** #include "gpio.h"
  23:Core/Src/main.c **** #include "MultiButton.h"
ARM GAS  C:\Users\ADMINI~1\AppData\Local\Temp\ccbnYZx6.s 			page 2


  24:Core/Src/main.c **** 
  25:Core/Src/main.c **** /* Private includes ----------------------------------------------------------*/
  26:Core/Src/main.c **** /* USER CODE BEGIN Includes */
  27:Core/Src/main.c **** 
  28:Core/Src/main.c **** /* USER CODE END Includes */
  29:Core/Src/main.c **** 
  30:Core/Src/main.c **** /* Private typedef -----------------------------------------------------------*/
  31:Core/Src/main.c **** /* USER CODE BEGIN PTD */
  32:Core/Src/main.c **** 
  33:Core/Src/main.c **** /* USER CODE END PTD */
  34:Core/Src/main.c **** 
  35:Core/Src/main.c **** /* Private define ------------------------------------------------------------*/
  36:Core/Src/main.c **** /* USER CODE BEGIN PD */
  37:Core/Src/main.c **** /* USER CODE END PD */
  38:Core/Src/main.c **** 
  39:Core/Src/main.c **** /* Private macro -------------------------------------------------------------*/
  40:Core/Src/main.c **** /* USER CODE BEGIN PM */
  41:Core/Src/main.c **** 
  42:Core/Src/main.c **** /* USER CODE END PM */
  43:Core/Src/main.c **** 
  44:Core/Src/main.c **** /* Private variables ---------------------------------------------------------*/
  45:Core/Src/main.c **** 
  46:Core/Src/main.c **** /* USER CODE BEGIN PV */
  47:Core/Src/main.c **** struct Button button1;
  48:Core/Src/main.c **** /* USER CODE END PV */
  49:Core/Src/main.c **** 
  50:Core/Src/main.c **** /* Private function prototypes -----------------------------------------------*/
  51:Core/Src/main.c **** void SystemClock_Config(void);
  52:Core/Src/main.c **** /* USER CODE BEGIN PFP */
  53:Core/Src/main.c **** 
  54:Core/Src/main.c **** /* USER CODE END PFP */
  55:Core/Src/main.c **** 
  56:Core/Src/main.c **** /* Private user code ---------------------------------------------------------*/
  57:Core/Src/main.c **** /* USER CODE BEGIN 0 */
  58:Core/Src/main.c **** void pressDownCallback(void *p)
  59:Core/Src/main.c **** {
  32              		.loc 1 59 1 view -0
  33              		.cfi_startproc
  34              		@ args = 0, pretend = 0, frame = 0
  35              		@ frame_needed = 0, uses_anonymous_args = 0
  36              		.loc 1 59 1 is_stmt 0 view .LVU1
  37 0000 10B5     		push	{r4, lr}
  38              	.LCFI0:
  39              		.cfi_def_cfa_offset 8
  40              		.cfi_offset 4, -8
  41              		.cfi_offset 14, -4
  60:Core/Src/main.c ****   static int i = 0;
  42              		.loc 1 60 3 is_stmt 1 view .LVU2
  61:Core/Src/main.c ****   HAL_GPIO_TogglePin(GPIOC, GPIO_PIN_13);
  43              		.loc 1 61 3 view .LVU3
  44 0002 4FF40051 		mov	r1, #8192
  45 0006 0648     		ldr	r0, .L3
  46              	.LVL1:
  47              		.loc 1 61 3 is_stmt 0 view .LVU4
  48 0008 FFF7FEFF 		bl	HAL_GPIO_TogglePin
  49              	.LVL2:
  62:Core/Src/main.c ****   printf("button press down. %d\r\n", i);
ARM GAS  C:\Users\ADMINI~1\AppData\Local\Temp\ccbnYZx6.s 			page 3


  50              		.loc 1 62 3 is_stmt 1 view .LVU5
  51 000c 054C     		ldr	r4, .L3+4
  52 000e 2168     		ldr	r1, [r4]
  53 0010 0548     		ldr	r0, .L3+8
  54 0012 FFF7FEFF 		bl	printf
  55              	.LVL3:
  63:Core/Src/main.c ****   i++;
  56              		.loc 1 63 3 view .LVU6
  57              		.loc 1 63 4 is_stmt 0 view .LVU7
  58 0016 2368     		ldr	r3, [r4]
  59 0018 0133     		adds	r3, r3, #1
  60 001a 2360     		str	r3, [r4]
  64:Core/Src/main.c **** }
  61              		.loc 1 64 1 view .LVU8
  62 001c 10BD     		pop	{r4, pc}
  63              	.L4:
  64 001e 00BF     		.align	2
  65              	.L3:
  66 0020 00100140 		.word	1073811456
  67 0024 00000000 		.word	.LANCHOR0
  68 0028 00000000 		.word	.LC0
  69              		.cfi_endproc
  70              	.LFE68:
  72              		.section	.text.readPinLevel,"ax",%progbits
  73              		.align	1
  74              		.global	readPinLevel
  75              		.syntax unified
  76              		.thumb
  77              		.thumb_func
  78              		.fpu softvfp
  80              	readPinLevel:
  81              	.LFB69:
  65:Core/Src/main.c **** 
  66:Core/Src/main.c **** uint8_t readPinLevel()
  67:Core/Src/main.c **** {
  82              		.loc 1 67 1 is_stmt 1 view -0
  83              		.cfi_startproc
  84              		@ args = 0, pretend = 0, frame = 0
  85              		@ frame_needed = 0, uses_anonymous_args = 0
  86 0000 08B5     		push	{r3, lr}
  87              	.LCFI1:
  88              		.cfi_def_cfa_offset 8
  89              		.cfi_offset 3, -8
  90              		.cfi_offset 14, -4
  68:Core/Src/main.c ****   return HAL_GPIO_ReadPin(GPIOA, GPIO_PIN_0);
  91              		.loc 1 68 3 view .LVU10
  92              		.loc 1 68 10 is_stmt 0 view .LVU11
  93 0002 0121     		movs	r1, #1
  94 0004 0148     		ldr	r0, .L7
  95 0006 FFF7FEFF 		bl	HAL_GPIO_ReadPin
  96              	.LVL4:
  69:Core/Src/main.c **** }
  97              		.loc 1 69 1 view .LVU12
  98 000a 08BD     		pop	{r3, pc}
  99              	.L8:
 100              		.align	2
 101              	.L7:
ARM GAS  C:\Users\ADMINI~1\AppData\Local\Temp\ccbnYZx6.s 			page 4


 102 000c 00080140 		.word	1073809408
 103              		.cfi_endproc
 104              	.LFE69:
 106              		.section	.text.Error_Handler,"ax",%progbits
 107              		.align	1
 108              		.global	Error_Handler
 109              		.syntax unified
 110              		.thumb
 111              		.thumb_func
 112              		.fpu softvfp
 114              	Error_Handler:
 115              	.LFB72:
  70:Core/Src/main.c **** /* USER CODE END 0 */
  71:Core/Src/main.c **** 
  72:Core/Src/main.c **** /**
  73:Core/Src/main.c ****  * @brief  The application entry point.
  74:Core/Src/main.c ****  * @retval int
  75:Core/Src/main.c ****  */
  76:Core/Src/main.c **** int main(void)
  77:Core/Src/main.c **** {
  78:Core/Src/main.c ****   /* USER CODE BEGIN 1 */
  79:Core/Src/main.c **** 
  80:Core/Src/main.c ****   /* USER CODE END 1 */
  81:Core/Src/main.c **** 
  82:Core/Src/main.c ****   /* MCU Configuration--------------------------------------------------------*/
  83:Core/Src/main.c **** 
  84:Core/Src/main.c ****   /* Reset of all peripherals, Initializes the Flash interface and the Systick. */
  85:Core/Src/main.c ****   HAL_Init();
  86:Core/Src/main.c **** 
  87:Core/Src/main.c ****   /* USER CODE BEGIN Init */
  88:Core/Src/main.c **** 
  89:Core/Src/main.c ****   /* USER CODE END Init */
  90:Core/Src/main.c **** 
  91:Core/Src/main.c ****   /* Configure the system clock */
  92:Core/Src/main.c ****   SystemClock_Config();
  93:Core/Src/main.c **** 
  94:Core/Src/main.c ****   /* USER CODE BEGIN SysInit */
  95:Core/Src/main.c **** 
  96:Core/Src/main.c ****   /* USER CODE END SysInit */
  97:Core/Src/main.c **** 
  98:Core/Src/main.c ****   /* Initialize all configured peripherals */
  99:Core/Src/main.c ****   MX_GPIO_Init();
 100:Core/Src/main.c ****   MX_USART1_UART_Init();
 101:Core/Src/main.c ****   /* USER CODE BEGIN 2 */
 102:Core/Src/main.c ****   button_init(&button1, readPinLevel, 1);
 103:Core/Src/main.c ****   button_attach(&button1, PRESS_DOWN, pressDownCallback);
 104:Core/Src/main.c ****   button_start(&button1);
 105:Core/Src/main.c ****   /* USER CODE END 2 */
 106:Core/Src/main.c **** 
 107:Core/Src/main.c ****   /* Infinite loop */
 108:Core/Src/main.c ****   /* USER CODE BEGIN WHILE */
 109:Core/Src/main.c ****   while (1)
 110:Core/Src/main.c ****   {
 111:Core/Src/main.c ****     /* USER CODE END WHILE */
 112:Core/Src/main.c ****     HAL_Delay(5);
 113:Core/Src/main.c ****     button_ticks();
 114:Core/Src/main.c ****     /* USER CODE BEGIN 3 */
ARM GAS  C:\Users\ADMINI~1\AppData\Local\Temp\ccbnYZx6.s 			page 5


 115:Core/Src/main.c ****   }
 116:Core/Src/main.c ****   /* USER CODE END 3 */
 117:Core/Src/main.c **** }
 118:Core/Src/main.c **** 
 119:Core/Src/main.c **** /**
 120:Core/Src/main.c ****  * @brief System Clock Configuration
 121:Core/Src/main.c ****  * @retval None
 122:Core/Src/main.c ****  */
 123:Core/Src/main.c **** void SystemClock_Config(void)
 124:Core/Src/main.c **** {
 125:Core/Src/main.c ****   RCC_OscInitTypeDef RCC_OscInitStruct = {0};
 126:Core/Src/main.c ****   RCC_ClkInitTypeDef RCC_ClkInitStruct = {0};
 127:Core/Src/main.c **** 
 128:Core/Src/main.c ****   /** Initializes the RCC Oscillators according to the specified parameters
 129:Core/Src/main.c ****    * in the RCC_OscInitTypeDef structure.
 130:Core/Src/main.c ****    */
 131:Core/Src/main.c ****   RCC_OscInitStruct.OscillatorType = RCC_OSCILLATORTYPE_HSE;
 132:Core/Src/main.c ****   RCC_OscInitStruct.HSEState = RCC_HSE_ON;
 133:Core/Src/main.c ****   RCC_OscInitStruct.HSEPredivValue = RCC_HSE_PREDIV_DIV1;
 134:Core/Src/main.c ****   RCC_OscInitStruct.HSIState = RCC_HSI_ON;
 135:Core/Src/main.c ****   RCC_OscInitStruct.PLL.PLLState = RCC_PLL_ON;
 136:Core/Src/main.c ****   RCC_OscInitStruct.PLL.PLLSource = RCC_PLLSOURCE_HSE;
 137:Core/Src/main.c ****   RCC_OscInitStruct.PLL.PLLMUL = RCC_PLL_MUL9;
 138:Core/Src/main.c ****   if (HAL_RCC_OscConfig(&RCC_OscInitStruct) != HAL_OK)
 139:Core/Src/main.c ****   {
 140:Core/Src/main.c ****     Error_Handler();
 141:Core/Src/main.c ****   }
 142:Core/Src/main.c ****   /** Initializes the CPU, AHB and APB buses clocks
 143:Core/Src/main.c ****    */
 144:Core/Src/main.c ****   RCC_ClkInitStruct.ClockType = RCC_CLOCKTYPE_HCLK | RCC_CLOCKTYPE_SYSCLK | RCC_CLOCKTYPE_PCLK1 | R
 145:Core/Src/main.c ****   RCC_ClkInitStruct.SYSCLKSource = RCC_SYSCLKSOURCE_PLLCLK;
 146:Core/Src/main.c ****   RCC_ClkInitStruct.AHBCLKDivider = RCC_SYSCLK_DIV1;
 147:Core/Src/main.c ****   RCC_ClkInitStruct.APB1CLKDivider = RCC_HCLK_DIV2;
 148:Core/Src/main.c ****   RCC_ClkInitStruct.APB2CLKDivider = RCC_HCLK_DIV1;
 149:Core/Src/main.c **** 
 150:Core/Src/main.c ****   if (HAL_RCC_ClockConfig(&RCC_ClkInitStruct, FLASH_LATENCY_2) != HAL_OK)
 151:Core/Src/main.c ****   {
 152:Core/Src/main.c ****     Error_Handler();
 153:Core/Src/main.c ****   }
 154:Core/Src/main.c **** }
 155:Core/Src/main.c **** 
 156:Core/Src/main.c **** /* USER CODE BEGIN 4 */
 157:Core/Src/main.c **** 
 158:Core/Src/main.c **** /* USER CODE END 4 */
 159:Core/Src/main.c **** 
 160:Core/Src/main.c **** /**
 161:Core/Src/main.c ****  * @brief  This function is executed in case of error occurrence.
 162:Core/Src/main.c ****  * @retval None
 163:Core/Src/main.c ****  */
 164:Core/Src/main.c **** void Error_Handler(void)
 165:Core/Src/main.c **** {
 116              		.loc 1 165 1 is_stmt 1 view -0
 117              		.cfi_startproc
 118              		@ Volatile: function does not return.
 119              		@ args = 0, pretend = 0, frame = 0
 120              		@ frame_needed = 0, uses_anonymous_args = 0
 121              		@ link register save eliminated.
ARM GAS  C:\Users\ADMINI~1\AppData\Local\Temp\ccbnYZx6.s 			page 6


 166:Core/Src/main.c ****   /* USER CODE BEGIN Error_Handler_Debug */
 167:Core/Src/main.c ****   /* User can add his own implementation to report the HAL error return state */
 168:Core/Src/main.c ****   __disable_irq();
 122              		.loc 1 168 3 view .LVU14
 123              	.LBB4:
 124              	.LBI4:
 125              		.file 2 "Drivers/CMSIS/Include/cmsis_gcc.h"
   1:Drivers/CMSIS/Include/cmsis_gcc.h **** /**************************************************************************//**
   2:Drivers/CMSIS/Include/cmsis_gcc.h ****  * @file     cmsis_gcc.h
   3:Drivers/CMSIS/Include/cmsis_gcc.h ****  * @brief    CMSIS compiler GCC header file
   4:Drivers/CMSIS/Include/cmsis_gcc.h ****  * @version  V5.0.4
   5:Drivers/CMSIS/Include/cmsis_gcc.h ****  * @date     09. April 2018
   6:Drivers/CMSIS/Include/cmsis_gcc.h ****  ******************************************************************************/
   7:Drivers/CMSIS/Include/cmsis_gcc.h **** /*
   8:Drivers/CMSIS/Include/cmsis_gcc.h ****  * Copyright (c) 2009-2018 Arm Limited. All rights reserved.
   9:Drivers/CMSIS/Include/cmsis_gcc.h ****  *
  10:Drivers/CMSIS/Include/cmsis_gcc.h ****  * SPDX-License-Identifier: Apache-2.0
  11:Drivers/CMSIS/Include/cmsis_gcc.h ****  *
  12:Drivers/CMSIS/Include/cmsis_gcc.h ****  * Licensed under the Apache License, Version 2.0 (the License); you may
  13:Drivers/CMSIS/Include/cmsis_gcc.h ****  * not use this file except in compliance with the License.
  14:Drivers/CMSIS/Include/cmsis_gcc.h ****  * You may obtain a copy of the License at
  15:Drivers/CMSIS/Include/cmsis_gcc.h ****  *
  16:Drivers/CMSIS/Include/cmsis_gcc.h ****  * www.apache.org/licenses/LICENSE-2.0
  17:Drivers/CMSIS/Include/cmsis_gcc.h ****  *
  18:Drivers/CMSIS/Include/cmsis_gcc.h ****  * Unless required by applicable law or agreed to in writing, software
  19:Drivers/CMSIS/Include/cmsis_gcc.h ****  * distributed under the License is distributed on an AS IS BASIS, WITHOUT
  20:Drivers/CMSIS/Include/cmsis_gcc.h ****  * WARRANTIES OR CONDITIONS OF ANY KIND, either express or implied.
  21:Drivers/CMSIS/Include/cmsis_gcc.h ****  * See the License for the specific language governing permissions and
  22:Drivers/CMSIS/Include/cmsis_gcc.h ****  * limitations under the License.
  23:Drivers/CMSIS/Include/cmsis_gcc.h ****  */
  24:Drivers/CMSIS/Include/cmsis_gcc.h **** 
  25:Drivers/CMSIS/Include/cmsis_gcc.h **** #ifndef __CMSIS_GCC_H
  26:Drivers/CMSIS/Include/cmsis_gcc.h **** #define __CMSIS_GCC_H
  27:Drivers/CMSIS/Include/cmsis_gcc.h **** 
  28:Drivers/CMSIS/Include/cmsis_gcc.h **** /* ignore some GCC warnings */
  29:Drivers/CMSIS/Include/cmsis_gcc.h **** #pragma GCC diagnostic push
  30:Drivers/CMSIS/Include/cmsis_gcc.h **** #pragma GCC diagnostic ignored "-Wsign-conversion"
  31:Drivers/CMSIS/Include/cmsis_gcc.h **** #pragma GCC diagnostic ignored "-Wconversion"
  32:Drivers/CMSIS/Include/cmsis_gcc.h **** #pragma GCC diagnostic ignored "-Wunused-parameter"
  33:Drivers/CMSIS/Include/cmsis_gcc.h **** 
  34:Drivers/CMSIS/Include/cmsis_gcc.h **** /* Fallback for __has_builtin */
  35:Drivers/CMSIS/Include/cmsis_gcc.h **** #ifndef __has_builtin
  36:Drivers/CMSIS/Include/cmsis_gcc.h ****   #define __has_builtin(x) (0)
  37:Drivers/CMSIS/Include/cmsis_gcc.h **** #endif
  38:Drivers/CMSIS/Include/cmsis_gcc.h **** 
  39:Drivers/CMSIS/Include/cmsis_gcc.h **** /* CMSIS compiler specific defines */
  40:Drivers/CMSIS/Include/cmsis_gcc.h **** #ifndef   __ASM
  41:Drivers/CMSIS/Include/cmsis_gcc.h ****   #define __ASM                                  __asm
  42:Drivers/CMSIS/Include/cmsis_gcc.h **** #endif
  43:Drivers/CMSIS/Include/cmsis_gcc.h **** #ifndef   __INLINE
  44:Drivers/CMSIS/Include/cmsis_gcc.h ****   #define __INLINE                               inline
  45:Drivers/CMSIS/Include/cmsis_gcc.h **** #endif
  46:Drivers/CMSIS/Include/cmsis_gcc.h **** #ifndef   __STATIC_INLINE
  47:Drivers/CMSIS/Include/cmsis_gcc.h ****   #define __STATIC_INLINE                        static inline
  48:Drivers/CMSIS/Include/cmsis_gcc.h **** #endif
  49:Drivers/CMSIS/Include/cmsis_gcc.h **** #ifndef   __STATIC_FORCEINLINE                 
  50:Drivers/CMSIS/Include/cmsis_gcc.h ****   #define __STATIC_FORCEINLINE                   __attribute__((always_inline)) static inline
ARM GAS  C:\Users\ADMINI~1\AppData\Local\Temp\ccbnYZx6.s 			page 7


  51:Drivers/CMSIS/Include/cmsis_gcc.h **** #endif                                           
  52:Drivers/CMSIS/Include/cmsis_gcc.h **** #ifndef   __NO_RETURN
  53:Drivers/CMSIS/Include/cmsis_gcc.h ****   #define __NO_RETURN                            __attribute__((__noreturn__))
  54:Drivers/CMSIS/Include/cmsis_gcc.h **** #endif
  55:Drivers/CMSIS/Include/cmsis_gcc.h **** #ifndef   __USED
  56:Drivers/CMSIS/Include/cmsis_gcc.h ****   #define __USED                                 __attribute__((used))
  57:Drivers/CMSIS/Include/cmsis_gcc.h **** #endif
  58:Drivers/CMSIS/Include/cmsis_gcc.h **** #ifndef   __WEAK
  59:Drivers/CMSIS/Include/cmsis_gcc.h ****   #define __WEAK                                 __attribute__((weak))
  60:Drivers/CMSIS/Include/cmsis_gcc.h **** #endif
  61:Drivers/CMSIS/Include/cmsis_gcc.h **** #ifndef   __PACKED
  62:Drivers/CMSIS/Include/cmsis_gcc.h ****   #define __PACKED                               __attribute__((packed, aligned(1)))
  63:Drivers/CMSIS/Include/cmsis_gcc.h **** #endif
  64:Drivers/CMSIS/Include/cmsis_gcc.h **** #ifndef   __PACKED_STRUCT
  65:Drivers/CMSIS/Include/cmsis_gcc.h ****   #define __PACKED_STRUCT                        struct __attribute__((packed, aligned(1)))
  66:Drivers/CMSIS/Include/cmsis_gcc.h **** #endif
  67:Drivers/CMSIS/Include/cmsis_gcc.h **** #ifndef   __PACKED_UNION
  68:Drivers/CMSIS/Include/cmsis_gcc.h ****   #define __PACKED_UNION                         union __attribute__((packed, aligned(1)))
  69:Drivers/CMSIS/Include/cmsis_gcc.h **** #endif
  70:Drivers/CMSIS/Include/cmsis_gcc.h **** #ifndef   __UNALIGNED_UINT32        /* deprecated */
  71:Drivers/CMSIS/Include/cmsis_gcc.h ****   #pragma GCC diagnostic push
  72:Drivers/CMSIS/Include/cmsis_gcc.h ****   #pragma GCC diagnostic ignored "-Wpacked"
  73:Drivers/CMSIS/Include/cmsis_gcc.h ****   #pragma GCC diagnostic ignored "-Wattributes"
  74:Drivers/CMSIS/Include/cmsis_gcc.h ****   struct __attribute__((packed)) T_UINT32 { uint32_t v; };
  75:Drivers/CMSIS/Include/cmsis_gcc.h ****   #pragma GCC diagnostic pop
  76:Drivers/CMSIS/Include/cmsis_gcc.h ****   #define __UNALIGNED_UINT32(x)                  (((struct T_UINT32 *)(x))->v)
  77:Drivers/CMSIS/Include/cmsis_gcc.h **** #endif
  78:Drivers/CMSIS/Include/cmsis_gcc.h **** #ifndef   __UNALIGNED_UINT16_WRITE
  79:Drivers/CMSIS/Include/cmsis_gcc.h ****   #pragma GCC diagnostic push
  80:Drivers/CMSIS/Include/cmsis_gcc.h ****   #pragma GCC diagnostic ignored "-Wpacked"
  81:Drivers/CMSIS/Include/cmsis_gcc.h ****   #pragma GCC diagnostic ignored "-Wattributes"
  82:Drivers/CMSIS/Include/cmsis_gcc.h ****   __PACKED_STRUCT T_UINT16_WRITE { uint16_t v; };
  83:Drivers/CMSIS/Include/cmsis_gcc.h ****   #pragma GCC diagnostic pop
  84:Drivers/CMSIS/Include/cmsis_gcc.h ****   #define __UNALIGNED_UINT16_WRITE(addr, val)    (void)((((struct T_UINT16_WRITE *)(void *)(addr))-
  85:Drivers/CMSIS/Include/cmsis_gcc.h **** #endif
  86:Drivers/CMSIS/Include/cmsis_gcc.h **** #ifndef   __UNALIGNED_UINT16_READ
  87:Drivers/CMSIS/Include/cmsis_gcc.h ****   #pragma GCC diagnostic push
  88:Drivers/CMSIS/Include/cmsis_gcc.h ****   #pragma GCC diagnostic ignored "-Wpacked"
  89:Drivers/CMSIS/Include/cmsis_gcc.h ****   #pragma GCC diagnostic ignored "-Wattributes"
  90:Drivers/CMSIS/Include/cmsis_gcc.h ****   __PACKED_STRUCT T_UINT16_READ { uint16_t v; };
  91:Drivers/CMSIS/Include/cmsis_gcc.h ****   #pragma GCC diagnostic pop
  92:Drivers/CMSIS/Include/cmsis_gcc.h ****   #define __UNALIGNED_UINT16_READ(addr)          (((const struct T_UINT16_READ *)(const void *)(add
  93:Drivers/CMSIS/Include/cmsis_gcc.h **** #endif
  94:Drivers/CMSIS/Include/cmsis_gcc.h **** #ifndef   __UNALIGNED_UINT32_WRITE
  95:Drivers/CMSIS/Include/cmsis_gcc.h ****   #pragma GCC diagnostic push
  96:Drivers/CMSIS/Include/cmsis_gcc.h ****   #pragma GCC diagnostic ignored "-Wpacked"
  97:Drivers/CMSIS/Include/cmsis_gcc.h ****   #pragma GCC diagnostic ignored "-Wattributes"
  98:Drivers/CMSIS/Include/cmsis_gcc.h ****   __PACKED_STRUCT T_UINT32_WRITE { uint32_t v; };
  99:Drivers/CMSIS/Include/cmsis_gcc.h ****   #pragma GCC diagnostic pop
 100:Drivers/CMSIS/Include/cmsis_gcc.h ****   #define __UNALIGNED_UINT32_WRITE(addr, val)    (void)((((struct T_UINT32_WRITE *)(void *)(addr))-
 101:Drivers/CMSIS/Include/cmsis_gcc.h **** #endif
 102:Drivers/CMSIS/Include/cmsis_gcc.h **** #ifndef   __UNALIGNED_UINT32_READ
 103:Drivers/CMSIS/Include/cmsis_gcc.h ****   #pragma GCC diagnostic push
 104:Drivers/CMSIS/Include/cmsis_gcc.h ****   #pragma GCC diagnostic ignored "-Wpacked"
 105:Drivers/CMSIS/Include/cmsis_gcc.h ****   #pragma GCC diagnostic ignored "-Wattributes"
 106:Drivers/CMSIS/Include/cmsis_gcc.h ****   __PACKED_STRUCT T_UINT32_READ { uint32_t v; };
 107:Drivers/CMSIS/Include/cmsis_gcc.h ****   #pragma GCC diagnostic pop
ARM GAS  C:\Users\ADMINI~1\AppData\Local\Temp\ccbnYZx6.s 			page 8


 108:Drivers/CMSIS/Include/cmsis_gcc.h ****   #define __UNALIGNED_UINT32_READ(addr)          (((const struct T_UINT32_READ *)(const void *)(add
 109:Drivers/CMSIS/Include/cmsis_gcc.h **** #endif
 110:Drivers/CMSIS/Include/cmsis_gcc.h **** #ifndef   __ALIGNED
 111:Drivers/CMSIS/Include/cmsis_gcc.h ****   #define __ALIGNED(x)                           __attribute__((aligned(x)))
 112:Drivers/CMSIS/Include/cmsis_gcc.h **** #endif
 113:Drivers/CMSIS/Include/cmsis_gcc.h **** #ifndef   __RESTRICT
 114:Drivers/CMSIS/Include/cmsis_gcc.h ****   #define __RESTRICT                             __restrict
 115:Drivers/CMSIS/Include/cmsis_gcc.h **** #endif
 116:Drivers/CMSIS/Include/cmsis_gcc.h **** 
 117:Drivers/CMSIS/Include/cmsis_gcc.h **** 
 118:Drivers/CMSIS/Include/cmsis_gcc.h **** /* ###########################  Core Function Access  ########################### */
 119:Drivers/CMSIS/Include/cmsis_gcc.h **** /** \ingroup  CMSIS_Core_FunctionInterface
 120:Drivers/CMSIS/Include/cmsis_gcc.h ****     \defgroup CMSIS_Core_RegAccFunctions CMSIS Core Register Access Functions
 121:Drivers/CMSIS/Include/cmsis_gcc.h ****   @{
 122:Drivers/CMSIS/Include/cmsis_gcc.h ****  */
 123:Drivers/CMSIS/Include/cmsis_gcc.h **** 
 124:Drivers/CMSIS/Include/cmsis_gcc.h **** /**
 125:Drivers/CMSIS/Include/cmsis_gcc.h ****   \brief   Enable IRQ Interrupts
 126:Drivers/CMSIS/Include/cmsis_gcc.h ****   \details Enables IRQ interrupts by clearing the I-bit in the CPSR.
 127:Drivers/CMSIS/Include/cmsis_gcc.h ****            Can only be executed in Privileged modes.
 128:Drivers/CMSIS/Include/cmsis_gcc.h ****  */
 129:Drivers/CMSIS/Include/cmsis_gcc.h **** __STATIC_FORCEINLINE void __enable_irq(void)
 130:Drivers/CMSIS/Include/cmsis_gcc.h **** {
 131:Drivers/CMSIS/Include/cmsis_gcc.h ****   __ASM volatile ("cpsie i" : : : "memory");
 132:Drivers/CMSIS/Include/cmsis_gcc.h **** }
 133:Drivers/CMSIS/Include/cmsis_gcc.h **** 
 134:Drivers/CMSIS/Include/cmsis_gcc.h **** 
 135:Drivers/CMSIS/Include/cmsis_gcc.h **** /**
 136:Drivers/CMSIS/Include/cmsis_gcc.h ****   \brief   Disable IRQ Interrupts
 137:Drivers/CMSIS/Include/cmsis_gcc.h ****   \details Disables IRQ interrupts by setting the I-bit in the CPSR.
 138:Drivers/CMSIS/Include/cmsis_gcc.h ****            Can only be executed in Privileged modes.
 139:Drivers/CMSIS/Include/cmsis_gcc.h ****  */
 140:Drivers/CMSIS/Include/cmsis_gcc.h **** __STATIC_FORCEINLINE void __disable_irq(void)
 126              		.loc 2 140 27 view .LVU15
 127              	.LBB5:
 141:Drivers/CMSIS/Include/cmsis_gcc.h **** {
 142:Drivers/CMSIS/Include/cmsis_gcc.h ****   __ASM volatile ("cpsid i" : : : "memory");
 128              		.loc 2 142 3 view .LVU16
 129              		.syntax unified
 130              	@ 142 "Drivers/CMSIS/Include/cmsis_gcc.h" 1
 131 0000 72B6     		cpsid i
 132              	@ 0 "" 2
 133              		.thumb
 134              		.syntax unified
 135              	.L10:
 136              	.LBE5:
 137              	.LBE4:
 169:Core/Src/main.c ****   while (1)
 138              		.loc 1 169 3 discriminator 1 view .LVU17
 170:Core/Src/main.c ****   {
 171:Core/Src/main.c ****   }
 139              		.loc 1 171 3 discriminator 1 view .LVU18
 169:Core/Src/main.c ****   while (1)
 140              		.loc 1 169 9 discriminator 1 view .LVU19
 141 0002 FEE7     		b	.L10
 142              		.cfi_endproc
 143              	.LFE72:
ARM GAS  C:\Users\ADMINI~1\AppData\Local\Temp\ccbnYZx6.s 			page 9


 145              		.section	.text.SystemClock_Config,"ax",%progbits
 146              		.align	1
 147              		.global	SystemClock_Config
 148              		.syntax unified
 149              		.thumb
 150              		.thumb_func
 151              		.fpu softvfp
 153              	SystemClock_Config:
 154              	.LFB71:
 124:Core/Src/main.c ****   RCC_OscInitTypeDef RCC_OscInitStruct = {0};
 155              		.loc 1 124 1 view -0
 156              		.cfi_startproc
 157              		@ args = 0, pretend = 0, frame = 64
 158              		@ frame_needed = 0, uses_anonymous_args = 0
 159 0000 00B5     		push	{lr}
 160              	.LCFI2:
 161              		.cfi_def_cfa_offset 4
 162              		.cfi_offset 14, -4
 163 0002 91B0     		sub	sp, sp, #68
 164              	.LCFI3:
 165              		.cfi_def_cfa_offset 72
 125:Core/Src/main.c ****   RCC_ClkInitTypeDef RCC_ClkInitStruct = {0};
 166              		.loc 1 125 3 view .LVU21
 125:Core/Src/main.c ****   RCC_ClkInitTypeDef RCC_ClkInitStruct = {0};
 167              		.loc 1 125 22 is_stmt 0 view .LVU22
 168 0004 0023     		movs	r3, #0
 169 0006 0993     		str	r3, [sp, #36]
 170 0008 0B93     		str	r3, [sp, #44]
 171 000a 0C93     		str	r3, [sp, #48]
 126:Core/Src/main.c **** 
 172              		.loc 1 126 3 is_stmt 1 view .LVU23
 126:Core/Src/main.c **** 
 173              		.loc 1 126 22 is_stmt 0 view .LVU24
 174 000c 0193     		str	r3, [sp, #4]
 175 000e 0293     		str	r3, [sp, #8]
 176 0010 0393     		str	r3, [sp, #12]
 177 0012 0493     		str	r3, [sp, #16]
 178 0014 0593     		str	r3, [sp, #20]
 131:Core/Src/main.c ****   RCC_OscInitStruct.HSEState = RCC_HSE_ON;
 179              		.loc 1 131 3 is_stmt 1 view .LVU25
 131:Core/Src/main.c ****   RCC_OscInitStruct.HSEState = RCC_HSE_ON;
 180              		.loc 1 131 36 is_stmt 0 view .LVU26
 181 0016 0121     		movs	r1, #1
 182 0018 0691     		str	r1, [sp, #24]
 132:Core/Src/main.c ****   RCC_OscInitStruct.HSEPredivValue = RCC_HSE_PREDIV_DIV1;
 183              		.loc 1 132 3 is_stmt 1 view .LVU27
 132:Core/Src/main.c ****   RCC_OscInitStruct.HSEPredivValue = RCC_HSE_PREDIV_DIV1;
 184              		.loc 1 132 30 is_stmt 0 view .LVU28
 185 001a 4FF48032 		mov	r2, #65536
 186 001e 0792     		str	r2, [sp, #28]
 133:Core/Src/main.c ****   RCC_OscInitStruct.HSIState = RCC_HSI_ON;
 187              		.loc 1 133 3 is_stmt 1 view .LVU29
 133:Core/Src/main.c ****   RCC_OscInitStruct.HSIState = RCC_HSI_ON;
 188              		.loc 1 133 36 is_stmt 0 view .LVU30
 189 0020 0893     		str	r3, [sp, #32]
 134:Core/Src/main.c ****   RCC_OscInitStruct.PLL.PLLState = RCC_PLL_ON;
 190              		.loc 1 134 3 is_stmt 1 view .LVU31
ARM GAS  C:\Users\ADMINI~1\AppData\Local\Temp\ccbnYZx6.s 			page 10


 134:Core/Src/main.c ****   RCC_OscInitStruct.PLL.PLLState = RCC_PLL_ON;
 191              		.loc 1 134 30 is_stmt 0 view .LVU32
 192 0022 0A91     		str	r1, [sp, #40]
 135:Core/Src/main.c ****   RCC_OscInitStruct.PLL.PLLSource = RCC_PLLSOURCE_HSE;
 193              		.loc 1 135 3 is_stmt 1 view .LVU33
 135:Core/Src/main.c ****   RCC_OscInitStruct.PLL.PLLSource = RCC_PLLSOURCE_HSE;
 194              		.loc 1 135 34 is_stmt 0 view .LVU34
 195 0024 0223     		movs	r3, #2
 196 0026 0D93     		str	r3, [sp, #52]
 136:Core/Src/main.c ****   RCC_OscInitStruct.PLL.PLLMUL = RCC_PLL_MUL9;
 197              		.loc 1 136 3 is_stmt 1 view .LVU35
 136:Core/Src/main.c ****   RCC_OscInitStruct.PLL.PLLMUL = RCC_PLL_MUL9;
 198              		.loc 1 136 35 is_stmt 0 view .LVU36
 199 0028 0E92     		str	r2, [sp, #56]
 137:Core/Src/main.c ****   if (HAL_RCC_OscConfig(&RCC_OscInitStruct) != HAL_OK)
 200              		.loc 1 137 3 is_stmt 1 view .LVU37
 137:Core/Src/main.c ****   if (HAL_RCC_OscConfig(&RCC_OscInitStruct) != HAL_OK)
 201              		.loc 1 137 32 is_stmt 0 view .LVU38
 202 002a 4FF4E013 		mov	r3, #1835008
 203 002e 0F93     		str	r3, [sp, #60]
 138:Core/Src/main.c ****   {
 204              		.loc 1 138 3 is_stmt 1 view .LVU39
 138:Core/Src/main.c ****   {
 205              		.loc 1 138 7 is_stmt 0 view .LVU40
 206 0030 06A8     		add	r0, sp, #24
 207 0032 FFF7FEFF 		bl	HAL_RCC_OscConfig
 208              	.LVL5:
 138:Core/Src/main.c ****   {
 209              		.loc 1 138 6 view .LVU41
 210 0036 80B9     		cbnz	r0, .L15
 144:Core/Src/main.c ****   RCC_ClkInitStruct.SYSCLKSource = RCC_SYSCLKSOURCE_PLLCLK;
 211              		.loc 1 144 3 is_stmt 1 view .LVU42
 144:Core/Src/main.c ****   RCC_ClkInitStruct.SYSCLKSource = RCC_SYSCLKSOURCE_PLLCLK;
 212              		.loc 1 144 31 is_stmt 0 view .LVU43
 213 0038 0F23     		movs	r3, #15
 214 003a 0193     		str	r3, [sp, #4]
 145:Core/Src/main.c ****   RCC_ClkInitStruct.AHBCLKDivider = RCC_SYSCLK_DIV1;
 215              		.loc 1 145 3 is_stmt 1 view .LVU44
 145:Core/Src/main.c ****   RCC_ClkInitStruct.AHBCLKDivider = RCC_SYSCLK_DIV1;
 216              		.loc 1 145 34 is_stmt 0 view .LVU45
 217 003c 0221     		movs	r1, #2
 218 003e 0291     		str	r1, [sp, #8]
 146:Core/Src/main.c ****   RCC_ClkInitStruct.APB1CLKDivider = RCC_HCLK_DIV2;
 219              		.loc 1 146 3 is_stmt 1 view .LVU46
 146:Core/Src/main.c ****   RCC_ClkInitStruct.APB1CLKDivider = RCC_HCLK_DIV2;
 220              		.loc 1 146 35 is_stmt 0 view .LVU47
 221 0040 0023     		movs	r3, #0
 222 0042 0393     		str	r3, [sp, #12]
 147:Core/Src/main.c ****   RCC_ClkInitStruct.APB2CLKDivider = RCC_HCLK_DIV1;
 223              		.loc 1 147 3 is_stmt 1 view .LVU48
 147:Core/Src/main.c ****   RCC_ClkInitStruct.APB2CLKDivider = RCC_HCLK_DIV1;
 224              		.loc 1 147 36 is_stmt 0 view .LVU49
 225 0044 4FF48062 		mov	r2, #1024
 226 0048 0492     		str	r2, [sp, #16]
 148:Core/Src/main.c **** 
 227              		.loc 1 148 3 is_stmt 1 view .LVU50
 148:Core/Src/main.c **** 
ARM GAS  C:\Users\ADMINI~1\AppData\Local\Temp\ccbnYZx6.s 			page 11


 228              		.loc 1 148 36 is_stmt 0 view .LVU51
 229 004a 0593     		str	r3, [sp, #20]
 150:Core/Src/main.c ****   {
 230              		.loc 1 150 3 is_stmt 1 view .LVU52
 150:Core/Src/main.c ****   {
 231              		.loc 1 150 7 is_stmt 0 view .LVU53
 232 004c 01A8     		add	r0, sp, #4
 233 004e FFF7FEFF 		bl	HAL_RCC_ClockConfig
 234              	.LVL6:
 150:Core/Src/main.c ****   {
 235              		.loc 1 150 6 view .LVU54
 236 0052 20B9     		cbnz	r0, .L16
 154:Core/Src/main.c **** 
 237              		.loc 1 154 1 view .LVU55
 238 0054 11B0     		add	sp, sp, #68
 239              	.LCFI4:
 240              		.cfi_remember_state
 241              		.cfi_def_cfa_offset 4
 242              		@ sp needed
 243 0056 5DF804FB 		ldr	pc, [sp], #4
 244              	.L15:
 245              	.LCFI5:
 246              		.cfi_restore_state
 140:Core/Src/main.c ****   }
 247              		.loc 1 140 5 is_stmt 1 view .LVU56
 248 005a FFF7FEFF 		bl	Error_Handler
 249              	.LVL7:
 250              	.L16:
 152:Core/Src/main.c ****   }
 251              		.loc 1 152 5 view .LVU57
 252 005e FFF7FEFF 		bl	Error_Handler
 253              	.LVL8:
 254              		.cfi_endproc
 255              	.LFE71:
 257              		.section	.text.main,"ax",%progbits
 258              		.align	1
 259              		.global	main
 260              		.syntax unified
 261              		.thumb
 262              		.thumb_func
 263              		.fpu softvfp
 265              	main:
 266              	.LFB70:
  77:Core/Src/main.c ****   /* USER CODE BEGIN 1 */
 267              		.loc 1 77 1 view -0
 268              		.cfi_startproc
 269              		@ Volatile: function does not return.
 270              		@ args = 0, pretend = 0, frame = 0
 271              		@ frame_needed = 0, uses_anonymous_args = 0
 272 0000 08B5     		push	{r3, lr}
 273              	.LCFI6:
 274              		.cfi_def_cfa_offset 8
 275              		.cfi_offset 3, -8
 276              		.cfi_offset 14, -4
  85:Core/Src/main.c **** 
 277              		.loc 1 85 3 view .LVU59
 278 0002 FFF7FEFF 		bl	HAL_Init
ARM GAS  C:\Users\ADMINI~1\AppData\Local\Temp\ccbnYZx6.s 			page 12


 279              	.LVL9:
  92:Core/Src/main.c **** 
 280              		.loc 1 92 3 view .LVU60
 281 0006 FFF7FEFF 		bl	SystemClock_Config
 282              	.LVL10:
  99:Core/Src/main.c ****   MX_USART1_UART_Init();
 283              		.loc 1 99 3 view .LVU61
 284 000a FFF7FEFF 		bl	MX_GPIO_Init
 285              	.LVL11:
 100:Core/Src/main.c ****   /* USER CODE BEGIN 2 */
 286              		.loc 1 100 3 view .LVU62
 287 000e FFF7FEFF 		bl	MX_USART1_UART_Init
 288              	.LVL12:
 102:Core/Src/main.c ****   button_attach(&button1, PRESS_DOWN, pressDownCallback);
 289              		.loc 1 102 3 view .LVU63
 290 0012 0A4C     		ldr	r4, .L20
 291 0014 0122     		movs	r2, #1
 292 0016 0A49     		ldr	r1, .L20+4
 293 0018 2046     		mov	r0, r4
 294 001a FFF7FEFF 		bl	button_init
 295              	.LVL13:
 103:Core/Src/main.c ****   button_start(&button1);
 296              		.loc 1 103 3 view .LVU64
 297 001e 094A     		ldr	r2, .L20+8
 298 0020 0021     		movs	r1, #0
 299 0022 2046     		mov	r0, r4
 300 0024 FFF7FEFF 		bl	button_attach
 301              	.LVL14:
 104:Core/Src/main.c ****   /* USER CODE END 2 */
 302              		.loc 1 104 3 view .LVU65
 303 0028 2046     		mov	r0, r4
 304 002a FFF7FEFF 		bl	button_start
 305              	.LVL15:
 306              	.L18:
 109:Core/Src/main.c ****   {
 307              		.loc 1 109 3 discriminator 1 view .LVU66
 112:Core/Src/main.c ****     button_ticks();
 308              		.loc 1 112 5 discriminator 1 view .LVU67
 309 002e 0520     		movs	r0, #5
 310 0030 FFF7FEFF 		bl	HAL_Delay
 311              	.LVL16:
 113:Core/Src/main.c ****     /* USER CODE BEGIN 3 */
 312              		.loc 1 113 5 discriminator 1 view .LVU68
 313 0034 FFF7FEFF 		bl	button_ticks
 314              	.LVL17:
 109:Core/Src/main.c ****   {
 315              		.loc 1 109 9 discriminator 1 view .LVU69
 316 0038 F9E7     		b	.L18
 317              	.L21:
 318 003a 00BF     		.align	2
 319              	.L20:
 320 003c 00000000 		.word	button1
 321 0040 00000000 		.word	readPinLevel
 322 0044 00000000 		.word	pressDownCallback
 323              		.cfi_endproc
 324              	.LFE70:
 326              		.comm	button1,40,4
ARM GAS  C:\Users\ADMINI~1\AppData\Local\Temp\ccbnYZx6.s 			page 13


 327              		.section	.bss.i.6853,"aw",%nobits
 328              		.align	2
 329              		.set	.LANCHOR0,. + 0
 332              	i.6853:
 333 0000 00000000 		.space	4
 334              		.text
 335              	.Letext0:
 336              		.file 3 "c:\\program files (x86)\\gnu tools arm embedded\\9 2019-q4-major\\arm-none-eabi\\include\
 337              		.file 4 "c:\\program files (x86)\\gnu tools arm embedded\\9 2019-q4-major\\arm-none-eabi\\include\
 338              		.file 5 "Drivers/CMSIS/Include/core_cm3.h"
 339              		.file 6 "Drivers/CMSIS/Device/ST/STM32F1xx/Include/system_stm32f1xx.h"
 340              		.file 7 "Drivers/CMSIS/Device/ST/STM32F1xx/Include/stm32f103xb.h"
 341              		.file 8 "Drivers/STM32F1xx_HAL_Driver/Inc/stm32f1xx_hal_def.h"
 342              		.file 9 "Drivers/STM32F1xx_HAL_Driver/Inc/stm32f1xx_hal_rcc.h"
 343              		.file 10 "Drivers/STM32F1xx_HAL_Driver/Inc/stm32f1xx_hal_rcc_ex.h"
 344              		.file 11 "Drivers/STM32F1xx_HAL_Driver/Inc/stm32f1xx_hal_dma.h"
 345              		.file 12 "Drivers/STM32F1xx_HAL_Driver/Inc/stm32f1xx_hal_uart.h"
 346              		.file 13 "Drivers/STM32F1xx_HAL_Driver/Inc/stm32f1xx_hal.h"
 347              		.file 14 "c:\\program files (x86)\\gnu tools arm embedded\\9 2019-q4-major\\arm-none-eabi\\include
 348              		.file 15 "c:\\program files (x86)\\gnu tools arm embedded\\9 2019-q4-major\\arm-none-eabi\\include
 349              		.file 16 "c:\\program files (x86)\\gnu tools arm embedded\\9 2019-q4-major\\lib\\gcc\\arm-none-eab
 350              		.file 17 "c:\\program files (x86)\\gnu tools arm embedded\\9 2019-q4-major\\arm-none-eabi\\include
 351              		.file 18 "Core/Inc/usart.h"
 352              		.file 19 "Core/Inc/MultiButton.h"
 353              		.file 20 "Core/Inc/gpio.h"
 354              		.file 21 "Drivers/STM32F1xx_HAL_Driver/Inc/stm32f1xx_hal_gpio.h"
 355              		.file 22 "c:\\program files (x86)\\gnu tools arm embedded\\9 2019-q4-major\\arm-none-eabi\\include
ARM GAS  C:\Users\ADMINI~1\AppData\Local\Temp\ccbnYZx6.s 			page 14

