ARM GAS  C:\Users\ADMINI~1\AppData\Local\Temp\ccJzAElw.s 			page 1


   1              		.cpu cortex-m3
   2              		.eabi_attribute 20, 1
   3              		.eabi_attribute 21, 1
   4              		.eabi_attribute 23, 3
   5              		.eabi_attribute 24, 1
   6              		.eabi_attribute 25, 1
   7              		.eabi_attribute 26, 1
   8              		.eabi_attribute 30, 1
   9              		.eabi_attribute 34, 1
  10              		.eabi_attribute 18, 4
  11              		.file	"usart.c"
  12              		.text
  13              	.Ltext0:
  14              		.cfi_sections	.debug_frame
  15              		.section	.text.__io_putchar,"ax",%progbits
  16              		.align	1
  17              		.global	__io_putchar
  18              		.arch armv7-m
  19              		.syntax unified
  20              		.thumb
  21              		.thumb_func
  22              		.fpu softvfp
  24              	__io_putchar:
  25              	.LVL0:
  26              	.LFB68:
  27              		.file 1 "Core/Src/usart.c"
   1:Core/Src/usart.c **** /* USER CODE BEGIN Header */
   2:Core/Src/usart.c **** /**
   3:Core/Src/usart.c ****   ******************************************************************************
   4:Core/Src/usart.c ****   * @file    usart.c
   5:Core/Src/usart.c ****   * @brief   This file provides code for the configuration
   6:Core/Src/usart.c ****   *          of the USART instances.
   7:Core/Src/usart.c ****   ******************************************************************************
   8:Core/Src/usart.c ****   * @attention
   9:Core/Src/usart.c ****   *
  10:Core/Src/usart.c ****   * Copyright (c) 2022 STMicroelectronics.
  11:Core/Src/usart.c ****   * All rights reserved.
  12:Core/Src/usart.c ****   *
  13:Core/Src/usart.c ****   * This software is licensed under terms that can be found in the LICENSE file
  14:Core/Src/usart.c ****   * in the root directory of this software component.
  15:Core/Src/usart.c ****   * If no LICENSE file comes with this software, it is provided AS-IS.
  16:Core/Src/usart.c ****   *
  17:Core/Src/usart.c ****   ******************************************************************************
  18:Core/Src/usart.c ****   */
  19:Core/Src/usart.c **** /* USER CODE END Header */
  20:Core/Src/usart.c **** /* Includes ------------------------------------------------------------------*/
  21:Core/Src/usart.c **** #include "usart.h"
  22:Core/Src/usart.c **** 
  23:Core/Src/usart.c **** /* USER CODE BEGIN 0 */
  24:Core/Src/usart.c **** int __io_putchar(int ch)
  25:Core/Src/usart.c **** {
  28              		.loc 1 25 1 view -0
  29              		.cfi_startproc
  30              		@ args = 0, pretend = 0, frame = 0
  31              		@ frame_needed = 0, uses_anonymous_args = 0
  32              		@ link register save eliminated.
  26:Core/Src/usart.c ****   USART1->DR = (uint8_t)ch;
ARM GAS  C:\Users\ADMINI~1\AppData\Local\Temp\ccJzAElw.s 			page 2


  33              		.loc 1 26 3 view .LVU1
  34              		.loc 1 26 16 is_stmt 0 view .LVU2
  35 0000 C2B2     		uxtb	r2, r0
  36              		.loc 1 26 14 view .LVU3
  37 0002 044B     		ldr	r3, .L3
  38 0004 5A60     		str	r2, [r3, #4]
  27:Core/Src/usart.c **** 	while((USART1->SR & 0x40) == 0);
  39              		.loc 1 27 2 is_stmt 1 view .LVU4
  40              	.L2:
  41              		.loc 1 27 33 discriminator 1 view .LVU5
  42              		.loc 1 27 7 discriminator 1 view .LVU6
  43              		.loc 1 27 15 is_stmt 0 discriminator 1 view .LVU7
  44 0006 034B     		ldr	r3, .L3
  45 0008 1B68     		ldr	r3, [r3]
  46              		.loc 1 27 7 discriminator 1 view .LVU8
  47 000a 13F0400F 		tst	r3, #64
  48 000e FAD0     		beq	.L2
  28:Core/Src/usart.c ****   return ch;
  29:Core/Src/usart.c **** }
  49              		.loc 1 29 1 view .LVU9
  50 0010 7047     		bx	lr
  51              	.L4:
  52 0012 00BF     		.align	2
  53              	.L3:
  54 0014 00380140 		.word	1073821696
  55              		.cfi_endproc
  56              	.LFE68:
  58              		.section	.text._write,"ax",%progbits
  59              		.align	1
  60              		.global	_write
  61              		.syntax unified
  62              		.thumb
  63              		.thumb_func
  64              		.fpu softvfp
  66              	_write:
  67              	.LVL1:
  68              	.LFB69:
  30:Core/Src/usart.c **** 
  31:Core/Src/usart.c **** int _write(int ch, char *ptr, int len)
  32:Core/Src/usart.c **** {
  69              		.loc 1 32 1 is_stmt 1 view -0
  70              		.cfi_startproc
  71              		@ args = 0, pretend = 0, frame = 0
  72              		@ frame_needed = 0, uses_anonymous_args = 0
  73              		.loc 1 32 1 is_stmt 0 view .LVU11
  74 0000 70B5     		push	{r4, r5, r6, lr}
  75              	.LCFI0:
  76              		.cfi_def_cfa_offset 16
  77              		.cfi_offset 4, -16
  78              		.cfi_offset 5, -12
  79              		.cfi_offset 6, -8
  80              		.cfi_offset 14, -4
  81 0002 0C46     		mov	r4, r1
  82 0004 1646     		mov	r6, r2
  33:Core/Src/usart.c ****   int DataIdx;
  83              		.loc 1 33 3 is_stmt 1 view .LVU12
  34:Core/Src/usart.c ****    for (DataIdx = 0; DataIdx < len; DataIdx++)
ARM GAS  C:\Users\ADMINI~1\AppData\Local\Temp\ccJzAElw.s 			page 3


  84              		.loc 1 34 4 view .LVU13
  85              	.LVL2:
  86              		.loc 1 34 17 is_stmt 0 view .LVU14
  87 0006 0025     		movs	r5, #0
  88              	.LVL3:
  89              	.L6:
  90              		.loc 1 34 22 is_stmt 1 discriminator 1 view .LVU15
  91              		.loc 1 34 4 is_stmt 0 discriminator 1 view .LVU16
  92 0008 B542     		cmp	r5, r6
  93 000a 05DA     		bge	.L9
  35:Core/Src/usart.c ****    {
  36:Core/Src/usart.c ****       __io_putchar(*ptr++);
  94              		.loc 1 36 7 is_stmt 1 discriminator 3 view .LVU17
  95              	.LVL4:
  96              		.loc 1 36 7 is_stmt 0 discriminator 3 view .LVU18
  97 000c 14F8010B 		ldrb	r0, [r4], #1	@ zero_extendqisi2
  98              	.LVL5:
  99              		.loc 1 36 7 discriminator 3 view .LVU19
 100 0010 FFF7FEFF 		bl	__io_putchar
 101              	.LVL6:
  34:Core/Src/usart.c ****    for (DataIdx = 0; DataIdx < len; DataIdx++)
 102              		.loc 1 34 37 is_stmt 1 discriminator 3 view .LVU20
  34:Core/Src/usart.c ****    for (DataIdx = 0; DataIdx < len; DataIdx++)
 103              		.loc 1 34 44 is_stmt 0 discriminator 3 view .LVU21
 104 0014 0135     		adds	r5, r5, #1
 105              	.LVL7:
  34:Core/Src/usart.c ****    for (DataIdx = 0; DataIdx < len; DataIdx++)
 106              		.loc 1 34 44 discriminator 3 view .LVU22
 107 0016 F7E7     		b	.L6
 108              	.L9:
  37:Core/Src/usart.c ****    }
  38:Core/Src/usart.c ****    return len;
 109              		.loc 1 38 4 is_stmt 1 view .LVU23
  39:Core/Src/usart.c **** }
 110              		.loc 1 39 1 is_stmt 0 view .LVU24
 111 0018 3046     		mov	r0, r6
 112 001a 70BD     		pop	{r4, r5, r6, pc}
 113              		.loc 1 39 1 view .LVU25
 114              		.cfi_endproc
 115              	.LFE69:
 117              		.section	.text.MX_USART1_UART_Init,"ax",%progbits
 118              		.align	1
 119              		.global	MX_USART1_UART_Init
 120              		.syntax unified
 121              		.thumb
 122              		.thumb_func
 123              		.fpu softvfp
 125              	MX_USART1_UART_Init:
 126              	.LFB70:
  40:Core/Src/usart.c **** 
  41:Core/Src/usart.c **** /* USER CODE END 0 */
  42:Core/Src/usart.c **** 
  43:Core/Src/usart.c **** UART_HandleTypeDef huart1;
  44:Core/Src/usart.c **** 
  45:Core/Src/usart.c **** /* USART1 init function */
  46:Core/Src/usart.c **** 
  47:Core/Src/usart.c **** void MX_USART1_UART_Init(void)
ARM GAS  C:\Users\ADMINI~1\AppData\Local\Temp\ccJzAElw.s 			page 4


  48:Core/Src/usart.c **** {
 127              		.loc 1 48 1 is_stmt 1 view -0
 128              		.cfi_startproc
 129              		@ args = 0, pretend = 0, frame = 0
 130              		@ frame_needed = 0, uses_anonymous_args = 0
 131 0000 08B5     		push	{r3, lr}
 132              	.LCFI1:
 133              		.cfi_def_cfa_offset 8
 134              		.cfi_offset 3, -8
 135              		.cfi_offset 14, -4
  49:Core/Src/usart.c **** 
  50:Core/Src/usart.c ****   /* USER CODE BEGIN USART1_Init 0 */
  51:Core/Src/usart.c **** 
  52:Core/Src/usart.c ****   /* USER CODE END USART1_Init 0 */
  53:Core/Src/usart.c **** 
  54:Core/Src/usart.c ****   /* USER CODE BEGIN USART1_Init 1 */
  55:Core/Src/usart.c **** 
  56:Core/Src/usart.c ****   /* USER CODE END USART1_Init 1 */
  57:Core/Src/usart.c ****   huart1.Instance = USART1;
 136              		.loc 1 57 3 view .LVU27
 137              		.loc 1 57 19 is_stmt 0 view .LVU28
 138 0002 0A48     		ldr	r0, .L14
 139 0004 0A4B     		ldr	r3, .L14+4
 140 0006 0360     		str	r3, [r0]
  58:Core/Src/usart.c ****   huart1.Init.BaudRate = 115200;
 141              		.loc 1 58 3 is_stmt 1 view .LVU29
 142              		.loc 1 58 24 is_stmt 0 view .LVU30
 143 0008 4FF4E133 		mov	r3, #115200
 144 000c 4360     		str	r3, [r0, #4]
  59:Core/Src/usart.c ****   huart1.Init.WordLength = UART_WORDLENGTH_8B;
 145              		.loc 1 59 3 is_stmt 1 view .LVU31
 146              		.loc 1 59 26 is_stmt 0 view .LVU32
 147 000e 0023     		movs	r3, #0
 148 0010 8360     		str	r3, [r0, #8]
  60:Core/Src/usart.c ****   huart1.Init.StopBits = UART_STOPBITS_1;
 149              		.loc 1 60 3 is_stmt 1 view .LVU33
 150              		.loc 1 60 24 is_stmt 0 view .LVU34
 151 0012 C360     		str	r3, [r0, #12]
  61:Core/Src/usart.c ****   huart1.Init.Parity = UART_PARITY_NONE;
 152              		.loc 1 61 3 is_stmt 1 view .LVU35
 153              		.loc 1 61 22 is_stmt 0 view .LVU36
 154 0014 0361     		str	r3, [r0, #16]
  62:Core/Src/usart.c ****   huart1.Init.Mode = UART_MODE_TX_RX;
 155              		.loc 1 62 3 is_stmt 1 view .LVU37
 156              		.loc 1 62 20 is_stmt 0 view .LVU38
 157 0016 0C22     		movs	r2, #12
 158 0018 4261     		str	r2, [r0, #20]
  63:Core/Src/usart.c ****   huart1.Init.HwFlowCtl = UART_HWCONTROL_NONE;
 159              		.loc 1 63 3 is_stmt 1 view .LVU39
 160              		.loc 1 63 25 is_stmt 0 view .LVU40
 161 001a 8361     		str	r3, [r0, #24]
  64:Core/Src/usart.c ****   huart1.Init.OverSampling = UART_OVERSAMPLING_16;
 162              		.loc 1 64 3 is_stmt 1 view .LVU41
 163              		.loc 1 64 28 is_stmt 0 view .LVU42
 164 001c C361     		str	r3, [r0, #28]
  65:Core/Src/usart.c ****   if (HAL_UART_Init(&huart1) != HAL_OK)
 165              		.loc 1 65 3 is_stmt 1 view .LVU43
ARM GAS  C:\Users\ADMINI~1\AppData\Local\Temp\ccJzAElw.s 			page 5


 166              		.loc 1 65 7 is_stmt 0 view .LVU44
 167 001e FFF7FEFF 		bl	HAL_UART_Init
 168              	.LVL8:
 169              		.loc 1 65 6 view .LVU45
 170 0022 00B9     		cbnz	r0, .L13
 171              	.L10:
  66:Core/Src/usart.c ****   {
  67:Core/Src/usart.c ****     Error_Handler();
  68:Core/Src/usart.c ****   }
  69:Core/Src/usart.c ****   /* USER CODE BEGIN USART1_Init 2 */
  70:Core/Src/usart.c **** 
  71:Core/Src/usart.c ****   /* USER CODE END USART1_Init 2 */
  72:Core/Src/usart.c **** 
  73:Core/Src/usart.c **** }
 172              		.loc 1 73 1 view .LVU46
 173 0024 08BD     		pop	{r3, pc}
 174              	.L13:
  67:Core/Src/usart.c ****   }
 175              		.loc 1 67 5 is_stmt 1 view .LVU47
 176 0026 FFF7FEFF 		bl	Error_Handler
 177              	.LVL9:
 178              		.loc 1 73 1 is_stmt 0 view .LVU48
 179 002a FBE7     		b	.L10
 180              	.L15:
 181              		.align	2
 182              	.L14:
 183 002c 00000000 		.word	huart1
 184 0030 00380140 		.word	1073821696
 185              		.cfi_endproc
 186              	.LFE70:
 188              		.section	.text.HAL_UART_MspInit,"ax",%progbits
 189              		.align	1
 190              		.global	HAL_UART_MspInit
 191              		.syntax unified
 192              		.thumb
 193              		.thumb_func
 194              		.fpu softvfp
 196              	HAL_UART_MspInit:
 197              	.LVL10:
 198              	.LFB71:
  74:Core/Src/usart.c **** 
  75:Core/Src/usart.c **** void HAL_UART_MspInit(UART_HandleTypeDef* uartHandle)
  76:Core/Src/usart.c **** {
 199              		.loc 1 76 1 is_stmt 1 view -0
 200              		.cfi_startproc
 201              		@ args = 0, pretend = 0, frame = 24
 202              		@ frame_needed = 0, uses_anonymous_args = 0
 203              		.loc 1 76 1 is_stmt 0 view .LVU50
 204 0000 10B5     		push	{r4, lr}
 205              	.LCFI2:
 206              		.cfi_def_cfa_offset 8
 207              		.cfi_offset 4, -8
 208              		.cfi_offset 14, -4
 209 0002 86B0     		sub	sp, sp, #24
 210              	.LCFI3:
 211              		.cfi_def_cfa_offset 32
  77:Core/Src/usart.c **** 
ARM GAS  C:\Users\ADMINI~1\AppData\Local\Temp\ccJzAElw.s 			page 6


  78:Core/Src/usart.c ****   GPIO_InitTypeDef GPIO_InitStruct = {0};
 212              		.loc 1 78 3 is_stmt 1 view .LVU51
 213              		.loc 1 78 20 is_stmt 0 view .LVU52
 214 0004 0023     		movs	r3, #0
 215 0006 0293     		str	r3, [sp, #8]
 216 0008 0393     		str	r3, [sp, #12]
 217 000a 0493     		str	r3, [sp, #16]
 218 000c 0593     		str	r3, [sp, #20]
  79:Core/Src/usart.c ****   if(uartHandle->Instance==USART1)
 219              		.loc 1 79 3 is_stmt 1 view .LVU53
 220              		.loc 1 79 16 is_stmt 0 view .LVU54
 221 000e 0268     		ldr	r2, [r0]
 222              		.loc 1 79 5 view .LVU55
 223 0010 174B     		ldr	r3, .L20
 224 0012 9A42     		cmp	r2, r3
 225 0014 01D0     		beq	.L19
 226              	.LVL11:
 227              	.L16:
  80:Core/Src/usart.c ****   {
  81:Core/Src/usart.c ****   /* USER CODE BEGIN USART1_MspInit 0 */
  82:Core/Src/usart.c **** 
  83:Core/Src/usart.c ****   /* USER CODE END USART1_MspInit 0 */
  84:Core/Src/usart.c ****     /* USART1 clock enable */
  85:Core/Src/usart.c ****     __HAL_RCC_USART1_CLK_ENABLE();
  86:Core/Src/usart.c **** 
  87:Core/Src/usart.c ****     __HAL_RCC_GPIOA_CLK_ENABLE();
  88:Core/Src/usart.c ****     /**USART1 GPIO Configuration
  89:Core/Src/usart.c ****     PA9     ------> USART1_TX
  90:Core/Src/usart.c ****     PA10     ------> USART1_RX
  91:Core/Src/usart.c ****     */
  92:Core/Src/usart.c ****     GPIO_InitStruct.Pin = GPIO_PIN_9;
  93:Core/Src/usart.c ****     GPIO_InitStruct.Mode = GPIO_MODE_AF_PP;
  94:Core/Src/usart.c ****     GPIO_InitStruct.Speed = GPIO_SPEED_FREQ_HIGH;
  95:Core/Src/usart.c ****     HAL_GPIO_Init(GPIOA, &GPIO_InitStruct);
  96:Core/Src/usart.c **** 
  97:Core/Src/usart.c ****     GPIO_InitStruct.Pin = GPIO_PIN_10;
  98:Core/Src/usart.c ****     GPIO_InitStruct.Mode = GPIO_MODE_INPUT;
  99:Core/Src/usart.c ****     GPIO_InitStruct.Pull = GPIO_NOPULL;
 100:Core/Src/usart.c ****     HAL_GPIO_Init(GPIOA, &GPIO_InitStruct);
 101:Core/Src/usart.c **** 
 102:Core/Src/usart.c ****   /* USER CODE BEGIN USART1_MspInit 1 */
 103:Core/Src/usart.c **** 
 104:Core/Src/usart.c ****   /* USER CODE END USART1_MspInit 1 */
 105:Core/Src/usart.c ****   }
 106:Core/Src/usart.c **** }
 228              		.loc 1 106 1 view .LVU56
 229 0016 06B0     		add	sp, sp, #24
 230              	.LCFI4:
 231              		.cfi_remember_state
 232              		.cfi_def_cfa_offset 8
 233              		@ sp needed
 234 0018 10BD     		pop	{r4, pc}
 235              	.LVL12:
 236              	.L19:
 237              	.LCFI5:
 238              		.cfi_restore_state
  85:Core/Src/usart.c **** 
ARM GAS  C:\Users\ADMINI~1\AppData\Local\Temp\ccJzAElw.s 			page 7


 239              		.loc 1 85 5 is_stmt 1 view .LVU57
 240              	.LBB2:
  85:Core/Src/usart.c **** 
 241              		.loc 1 85 5 view .LVU58
  85:Core/Src/usart.c **** 
 242              		.loc 1 85 5 view .LVU59
 243 001a 03F55843 		add	r3, r3, #55296
 244 001e 9A69     		ldr	r2, [r3, #24]
 245 0020 42F48042 		orr	r2, r2, #16384
 246 0024 9A61     		str	r2, [r3, #24]
  85:Core/Src/usart.c **** 
 247              		.loc 1 85 5 view .LVU60
 248 0026 9A69     		ldr	r2, [r3, #24]
 249 0028 02F48042 		and	r2, r2, #16384
 250 002c 0092     		str	r2, [sp]
  85:Core/Src/usart.c **** 
 251              		.loc 1 85 5 view .LVU61
 252 002e 009A     		ldr	r2, [sp]
 253              	.LBE2:
  85:Core/Src/usart.c **** 
 254              		.loc 1 85 5 view .LVU62
  87:Core/Src/usart.c ****     /**USART1 GPIO Configuration
 255              		.loc 1 87 5 view .LVU63
 256              	.LBB3:
  87:Core/Src/usart.c ****     /**USART1 GPIO Configuration
 257              		.loc 1 87 5 view .LVU64
  87:Core/Src/usart.c ****     /**USART1 GPIO Configuration
 258              		.loc 1 87 5 view .LVU65
 259 0030 9A69     		ldr	r2, [r3, #24]
 260 0032 42F00402 		orr	r2, r2, #4
 261 0036 9A61     		str	r2, [r3, #24]
  87:Core/Src/usart.c ****     /**USART1 GPIO Configuration
 262              		.loc 1 87 5 view .LVU66
 263 0038 9B69     		ldr	r3, [r3, #24]
 264 003a 03F00403 		and	r3, r3, #4
 265 003e 0193     		str	r3, [sp, #4]
  87:Core/Src/usart.c ****     /**USART1 GPIO Configuration
 266              		.loc 1 87 5 view .LVU67
 267 0040 019B     		ldr	r3, [sp, #4]
 268              	.LBE3:
  87:Core/Src/usart.c ****     /**USART1 GPIO Configuration
 269              		.loc 1 87 5 view .LVU68
  92:Core/Src/usart.c ****     GPIO_InitStruct.Mode = GPIO_MODE_AF_PP;
 270              		.loc 1 92 5 view .LVU69
  92:Core/Src/usart.c ****     GPIO_InitStruct.Mode = GPIO_MODE_AF_PP;
 271              		.loc 1 92 25 is_stmt 0 view .LVU70
 272 0042 4FF40073 		mov	r3, #512
 273 0046 0293     		str	r3, [sp, #8]
  93:Core/Src/usart.c ****     GPIO_InitStruct.Speed = GPIO_SPEED_FREQ_HIGH;
 274              		.loc 1 93 5 is_stmt 1 view .LVU71
  93:Core/Src/usart.c ****     GPIO_InitStruct.Speed = GPIO_SPEED_FREQ_HIGH;
 275              		.loc 1 93 26 is_stmt 0 view .LVU72
 276 0048 0223     		movs	r3, #2
 277 004a 0393     		str	r3, [sp, #12]
  94:Core/Src/usart.c ****     HAL_GPIO_Init(GPIOA, &GPIO_InitStruct);
 278              		.loc 1 94 5 is_stmt 1 view .LVU73
  94:Core/Src/usart.c ****     HAL_GPIO_Init(GPIOA, &GPIO_InitStruct);
ARM GAS  C:\Users\ADMINI~1\AppData\Local\Temp\ccJzAElw.s 			page 8


 279              		.loc 1 94 27 is_stmt 0 view .LVU74
 280 004c 0323     		movs	r3, #3
 281 004e 0593     		str	r3, [sp, #20]
  95:Core/Src/usart.c **** 
 282              		.loc 1 95 5 is_stmt 1 view .LVU75
 283 0050 084C     		ldr	r4, .L20+4
 284 0052 02A9     		add	r1, sp, #8
 285 0054 2046     		mov	r0, r4
 286              	.LVL13:
  95:Core/Src/usart.c **** 
 287              		.loc 1 95 5 is_stmt 0 view .LVU76
 288 0056 FFF7FEFF 		bl	HAL_GPIO_Init
 289              	.LVL14:
  97:Core/Src/usart.c ****     GPIO_InitStruct.Mode = GPIO_MODE_INPUT;
 290              		.loc 1 97 5 is_stmt 1 view .LVU77
  97:Core/Src/usart.c ****     GPIO_InitStruct.Mode = GPIO_MODE_INPUT;
 291              		.loc 1 97 25 is_stmt 0 view .LVU78
 292 005a 4FF48063 		mov	r3, #1024
 293 005e 0293     		str	r3, [sp, #8]
  98:Core/Src/usart.c ****     GPIO_InitStruct.Pull = GPIO_NOPULL;
 294              		.loc 1 98 5 is_stmt 1 view .LVU79
  98:Core/Src/usart.c ****     GPIO_InitStruct.Pull = GPIO_NOPULL;
 295              		.loc 1 98 26 is_stmt 0 view .LVU80
 296 0060 0023     		movs	r3, #0
 297 0062 0393     		str	r3, [sp, #12]
  99:Core/Src/usart.c ****     HAL_GPIO_Init(GPIOA, &GPIO_InitStruct);
 298              		.loc 1 99 5 is_stmt 1 view .LVU81
  99:Core/Src/usart.c ****     HAL_GPIO_Init(GPIOA, &GPIO_InitStruct);
 299              		.loc 1 99 26 is_stmt 0 view .LVU82
 300 0064 0493     		str	r3, [sp, #16]
 100:Core/Src/usart.c **** 
 301              		.loc 1 100 5 is_stmt 1 view .LVU83
 302 0066 02A9     		add	r1, sp, #8
 303 0068 2046     		mov	r0, r4
 304 006a FFF7FEFF 		bl	HAL_GPIO_Init
 305              	.LVL15:
 306              		.loc 1 106 1 is_stmt 0 view .LVU84
 307 006e D2E7     		b	.L16
 308              	.L21:
 309              		.align	2
 310              	.L20:
 311 0070 00380140 		.word	1073821696
 312 0074 00080140 		.word	1073809408
 313              		.cfi_endproc
 314              	.LFE71:
 316              		.section	.text.HAL_UART_MspDeInit,"ax",%progbits
 317              		.align	1
 318              		.global	HAL_UART_MspDeInit
 319              		.syntax unified
 320              		.thumb
 321              		.thumb_func
 322              		.fpu softvfp
 324              	HAL_UART_MspDeInit:
 325              	.LVL16:
 326              	.LFB72:
 107:Core/Src/usart.c **** 
 108:Core/Src/usart.c **** void HAL_UART_MspDeInit(UART_HandleTypeDef* uartHandle)
ARM GAS  C:\Users\ADMINI~1\AppData\Local\Temp\ccJzAElw.s 			page 9


 109:Core/Src/usart.c **** {
 327              		.loc 1 109 1 is_stmt 1 view -0
 328              		.cfi_startproc
 329              		@ args = 0, pretend = 0, frame = 0
 330              		@ frame_needed = 0, uses_anonymous_args = 0
 331              		.loc 1 109 1 is_stmt 0 view .LVU86
 332 0000 08B5     		push	{r3, lr}
 333              	.LCFI6:
 334              		.cfi_def_cfa_offset 8
 335              		.cfi_offset 3, -8
 336              		.cfi_offset 14, -4
 110:Core/Src/usart.c **** 
 111:Core/Src/usart.c ****   if(uartHandle->Instance==USART1)
 337              		.loc 1 111 3 is_stmt 1 view .LVU87
 338              		.loc 1 111 16 is_stmt 0 view .LVU88
 339 0002 0268     		ldr	r2, [r0]
 340              		.loc 1 111 5 view .LVU89
 341 0004 074B     		ldr	r3, .L26
 342 0006 9A42     		cmp	r2, r3
 343 0008 00D0     		beq	.L25
 344              	.LVL17:
 345              	.L22:
 112:Core/Src/usart.c ****   {
 113:Core/Src/usart.c ****   /* USER CODE BEGIN USART1_MspDeInit 0 */
 114:Core/Src/usart.c **** 
 115:Core/Src/usart.c ****   /* USER CODE END USART1_MspDeInit 0 */
 116:Core/Src/usart.c ****     /* Peripheral clock disable */
 117:Core/Src/usart.c ****     __HAL_RCC_USART1_CLK_DISABLE();
 118:Core/Src/usart.c **** 
 119:Core/Src/usart.c ****     /**USART1 GPIO Configuration
 120:Core/Src/usart.c ****     PA9     ------> USART1_TX
 121:Core/Src/usart.c ****     PA10     ------> USART1_RX
 122:Core/Src/usart.c ****     */
 123:Core/Src/usart.c ****     HAL_GPIO_DeInit(GPIOA, GPIO_PIN_9|GPIO_PIN_10);
 124:Core/Src/usart.c **** 
 125:Core/Src/usart.c ****   /* USER CODE BEGIN USART1_MspDeInit 1 */
 126:Core/Src/usart.c **** 
 127:Core/Src/usart.c ****   /* USER CODE END USART1_MspDeInit 1 */
 128:Core/Src/usart.c ****   }
 129:Core/Src/usart.c **** }
 346              		.loc 1 129 1 view .LVU90
 347 000a 08BD     		pop	{r3, pc}
 348              	.LVL18:
 349              	.L25:
 117:Core/Src/usart.c **** 
 350              		.loc 1 117 5 is_stmt 1 view .LVU91
 351 000c 064A     		ldr	r2, .L26+4
 352 000e 9369     		ldr	r3, [r2, #24]
 353 0010 23F48043 		bic	r3, r3, #16384
 354 0014 9361     		str	r3, [r2, #24]
 123:Core/Src/usart.c **** 
 355              		.loc 1 123 5 view .LVU92
 356 0016 4FF4C061 		mov	r1, #1536
 357 001a 0448     		ldr	r0, .L26+8
 358              	.LVL19:
 123:Core/Src/usart.c **** 
 359              		.loc 1 123 5 is_stmt 0 view .LVU93
ARM GAS  C:\Users\ADMINI~1\AppData\Local\Temp\ccJzAElw.s 			page 10


 360 001c FFF7FEFF 		bl	HAL_GPIO_DeInit
 361              	.LVL20:
 362              		.loc 1 129 1 view .LVU94
 363 0020 F3E7     		b	.L22
 364              	.L27:
 365 0022 00BF     		.align	2
 366              	.L26:
 367 0024 00380140 		.word	1073821696
 368 0028 00100240 		.word	1073876992
 369 002c 00080140 		.word	1073809408
 370              		.cfi_endproc
 371              	.LFE72:
 373              		.comm	huart1,68,4
 374              		.text
 375              	.Letext0:
 376              		.file 2 "c:\\program files (x86)\\gnu tools arm embedded\\9 2019-q4-major\\arm-none-eabi\\include\
 377              		.file 3 "c:\\program files (x86)\\gnu tools arm embedded\\9 2019-q4-major\\arm-none-eabi\\include\
 378              		.file 4 "Drivers/CMSIS/Include/core_cm3.h"
 379              		.file 5 "Drivers/CMSIS/Device/ST/STM32F1xx/Include/system_stm32f1xx.h"
 380              		.file 6 "Drivers/CMSIS/Device/ST/STM32F1xx/Include/stm32f103xb.h"
 381              		.file 7 "Drivers/STM32F1xx_HAL_Driver/Inc/stm32f1xx_hal_def.h"
 382              		.file 8 "Drivers/STM32F1xx_HAL_Driver/Inc/stm32f1xx_hal_gpio.h"
 383              		.file 9 "Drivers/STM32F1xx_HAL_Driver/Inc/stm32f1xx_hal_dma.h"
 384              		.file 10 "Drivers/STM32F1xx_HAL_Driver/Inc/stm32f1xx_hal_uart.h"
 385              		.file 11 "Drivers/STM32F1xx_HAL_Driver/Inc/stm32f1xx_hal.h"
 386              		.file 12 "c:\\program files (x86)\\gnu tools arm embedded\\9 2019-q4-major\\arm-none-eabi\\include
 387              		.file 13 "c:\\program files (x86)\\gnu tools arm embedded\\9 2019-q4-major\\arm-none-eabi\\include
 388              		.file 14 "c:\\program files (x86)\\gnu tools arm embedded\\9 2019-q4-major\\lib\\gcc\\arm-none-eab
 389              		.file 15 "c:\\program files (x86)\\gnu tools arm embedded\\9 2019-q4-major\\arm-none-eabi\\include
 390              		.file 16 "Core/Inc/usart.h"
 391              		.file 17 "Core/Inc/main.h"
ARM GAS  C:\Users\ADMINI~1\AppData\Local\Temp\ccJzAElw.s 			page 11

